target datalayout = "e-m:e-p270:32:32-p271:32:32-p272:64:64-i64:64-i128:128-f80:128-n8:16:32:64-S128"
target triple = "x86_64-unknown-linux-gnu"

%struct.ArchCPU = type { %struct.CPUState, %struct.CPUArchState, ptr, ptr, %struct.RISCVCPUConfig, ptr, i32, ptr, [8 x i8] }
%struct.CPUState = type { %struct.DeviceState, ptr, i32, i32, ptr, i32, i8, i8, ptr, i8, i8, i8, i8, i8, i8, i8, i8, i32, i32, i32, i32, i64, i64, i64, [1 x %struct.__jmp_buf_tag], %struct.QemuMutex, %struct.anon, ptr, i32, ptr, ptr, ptr, ptr, i32, i32, %union.anon, %union.anon.0, %union.anon.1, ptr, ptr, i64, i32, ptr, ptr, ptr, i32, i64, i32, %struct.QemuLockCnt, [1 x i64], ptr, i32, i32, i32, i32, i32, ptr, i8, i8, i64, i8, i8, ptr, [8 x i8], [0 x i8], %struct.CPUNegativeOffsetState }
%struct.DeviceState = type { %struct.Object, ptr, ptr, i8, i8, i64, ptr, i32, i8, ptr, %struct.NamedGPIOListHead, %struct.NamedClockListHead, %struct.BusStateHead, i32, i32, i32, %struct.ResettableState, ptr, %struct.MemReentrancyGuard }
%struct.Object = type { ptr, ptr, ptr, i32, ptr }
%struct.NamedGPIOListHead = type { ptr }
%struct.NamedClockListHead = type { ptr }
%struct.BusStateHead = type { ptr }
%struct.ResettableState = type { i32, i8, i8 }
%struct.MemReentrancyGuard = type { i8 }
%struct.__jmp_buf_tag = type { [8 x i64], i32, %struct.__sigset_t }
%struct.__sigset_t = type { [16 x i64] }
%struct.QemuMutex = type { %union.pthread_mutex_t, i8 }
%union.pthread_mutex_t = type { %struct.__pthread_mutex_s }
%struct.__pthread_mutex_s = type { i32, i32, i32, i32, i32, i16, i16, %struct.__pthread_internal_list }
%struct.__pthread_internal_list = type { ptr, ptr }
%struct.anon = type { ptr, ptr }
%union.anon = type { %struct.QTailQLink }
%struct.QTailQLink = type { ptr, ptr }
%union.anon.0 = type { %struct.QTailQLink }
%union.anon.1 = type { %struct.QTailQLink }
%struct.QemuLockCnt = type { i32 }
%struct.CPUNegativeOffsetState = type { %struct.CPUTLB, %union.IcountDecr, i8, [11 x i8] }
%struct.CPUTLB = type { %struct.CPUTLBCommon, [16 x %struct.CPUTLBDesc], [16 x %struct.CPUTLBDescFast] }
%struct.CPUTLBCommon = type { %struct.QemuSpin, i16, i64, i64, i64 }
%struct.QemuSpin = type { i32 }
%struct.CPUTLBDesc = type { i64, i64, i64, i64, i64, i64, [8 x %union.CPUTLBEntry], [8 x %struct.CPUTLBEntryFull], ptr }
%union.CPUTLBEntry = type { %struct.anon.2 }
%struct.anon.2 = type { i64, i64, i64, i64 }
%struct.CPUTLBEntryFull = type { i64, i64, %struct.MemTxAttrs, i8, i8, [3 x i8], %union.anon.3 }
%struct.MemTxAttrs = type { i32 }
%union.anon.3 = type { %struct.anon.4 }
%struct.anon.4 = type { i8, i8, i8 }
%struct.CPUTLBDescFast = type { i64, ptr }
%union.IcountDecr = type { i32 }
%struct.CPUArchState = type { [32 x i64], [32 x i64], [512 x i64], i64, i64, i64, i64, i64, i8, i64, i64, i64, [32 x i64], i64, %struct.float_status, i64, i64, i64, i64, i64, i64, i32, i32, i32, i32, i32, i64, i64, i64, i8, i64, i64, i64, i64, i64, i8, i8, i64, i64, i64, i64, i64, i64, i64, i64, i64, i64, i64, i64, i64, i64, i64, [64 x i8], [64 x i8], i64, i64, i64, i64, i64, i64, i64, i64, i64, i64, i64, i64, i64, i64, i64, i64, i64, [64 x i8], i64, i64, i64, i64, i64, i64, i64, i64, i64, i64, i64, i64, i64, i64, i64, i64, i64, i64, i64, i8, i8, i64, i64, i64, [32 x %struct.PMUCTRState], [32 x i64], [32 x i64], i64, i64, i64, i64, %struct.pmp_table_t, i64, i64, [2 x i64], [2 x i64], [2 x i64], [2 x ptr], [2 x ptr], [2 x ptr], i64, i8, ptr, ptr, [4 x ptr], [4 x ptr], i8, i64, i64, i64, i64, i64, i64, i64, i64, [4 x i64], [4 x i64], [4 x i64], i64, i64, i64, i64, ptr, ptr, i8, i64, i64, [8 x i8] }
%struct.float_status = type { i16, i8, i8, i8, i8, i8, i8, i8, i8, i8, i8, i8 }
%struct.PMUCTRState = type { i64, i64, i64, i64, i8, i64 }
%struct.pmp_table_t = type { [16 x %struct.pmp_entry_t], [16 x %struct.pmp_addr_t], i32 }
%struct.pmp_entry_t = type { i64, i8 }
%struct.pmp_addr_t = type { i64, i64 }
%struct.RISCVCPUConfig = type { i8, i8, i8, i8, i8, i8, i8, i8, i8, i8, i8, i8, i8, i8, i8, i8, i8, i8, i8, i8, i8, i8, i8, i8, i8, i8, i8, i8, i8, i8, i8, i8, i8, i8, i8, i8, i8, i8, i8, i8, i8, i8, i8, i8, i8, i8, i8, i8, i8, i8, i8, i8, i8, i8, i8, i8, i8, i8, i8, i8, i8, i8, i8, i8, i8, i8, i8, i8, i8, i8, i8, i8, i8, i8, i8, i8, i8, i8, i32, i64, i64, i8, i8, i8, i8, i8, i8, i8, i8, i8, i8, i8, i8, i32, ptr, ptr, ptr, ptr, i16, i16, i16, i16, i8, i8, i8, i8, i8, %struct.RISCVSATPMap }
%struct.RISCVSATPMap = type { i16, i16, i16 }

@.str.1 = private unnamed_addr constant [27 x i8] c"../qemu/target/riscv/pmu.c\00", align 1
@__func__.riscv_pmu_init = private unnamed_addr constant [15 x i8] c"riscv_pmu_init\00", align 1
@.str.2 = private unnamed_addr constant [43 x i8] c"\22pmu-mask\22 contains invalid bits (0-2) set\00", align 1
@.str.3 = private unnamed_addr constant [45 x i8] c"Number of counters exceeds maximum available\00", align 1
@.str.4 = private unnamed_addr constant [40 x i8] c"Unable to allocate PMU event hash table\00", align 1

; Function Attrs: nounwind sspstrong uwtable
define internal i32 @ctpop32(i32 noundef %val) #0 {
entry:
  %val.addr = alloca i32, align 4
  store i32 %val, ptr %val.addr, align 4
  %0 = load i32, ptr %val.addr, align 4
  %1 = call i32 @llvm.ctpop.i32(i32 %0)
  ret i32 %1
}

; Function Attrs: nounwind sspstrong uwtable
define dso_local void @riscv_pmu_init(ptr noundef %cpu, ptr noundef %errp) #0 {
entry:
  %cpu.addr = alloca ptr, align 8
  %errp.addr = alloca ptr, align 8
  store ptr %cpu, ptr %cpu.addr, align 8
  store ptr %errp, ptr %errp.addr, align 8
  %0 = load ptr, ptr %cpu.addr, align 8
  %cfg = getelementptr inbounds %struct.ArchCPU, ptr %0, i32 0, i32 4
  %pmu_mask = getelementptr inbounds %struct.RISCVCPUConfig, ptr %cfg, i32 0, i32 93
  %1 = load i32, ptr %pmu_mask, align 4
  %and = and i32 %1, 7
  %tobool = icmp ne i32 %and, 0
  br i1 %tobool, label %if.then, label %if.end

if.then:                                          ; preds = %entry
  %2 = load ptr, ptr %errp.addr, align 8
  call void (ptr, ptr, i32, ptr, ptr, ...) @error_setg_internal(ptr noundef %2, ptr noundef @.str.1, i32 noundef 435, ptr noundef @__func__.riscv_pmu_init, ptr noundef @.str.2)
  br label %return

if.end:                                           ; preds = %entry
  %3 = load ptr, ptr %cpu.addr, align 8
  %cfg1 = getelementptr inbounds %struct.ArchCPU, ptr %3, i32 0, i32 4
  %pmu_mask2 = getelementptr inbounds %struct.RISCVCPUConfig, ptr %cfg1, i32 0, i32 93
  %4 = load i32, ptr %pmu_mask2, align 4
  %call = call i32 @ctpop32(i32 noundef %4)
  %cmp = icmp sgt i32 %call, 29
  br i1 %cmp, label %if.then3, label %if.end4

if.then3:                                         ; preds = %if.end
  %5 = load ptr, ptr %errp.addr, align 8
  call void (ptr, ptr, i32, ptr, ptr, ...) @error_setg_internal(ptr noundef %5, ptr noundef @.str.1, i32 noundef 440, ptr noundef @__func__.riscv_pmu_init, ptr noundef @.str.3)
  br label %return

if.end4:                                          ; preds = %if.end
  %call5 = call ptr @g_hash_table_new(ptr noundef @g_direct_hash, ptr noundef @g_direct_equal)
  %6 = load ptr, ptr %cpu.addr, align 8
  %pmu_event_ctr_map = getelementptr inbounds %struct.ArchCPU, ptr %6, i32 0, i32 7
  store ptr %call5, ptr %pmu_event_ctr_map, align 16
  %7 = load ptr, ptr %cpu.addr, align 8
  %pmu_event_ctr_map6 = getelementptr inbounds %struct.ArchCPU, ptr %7, i32 0, i32 7
  %8 = load ptr, ptr %pmu_event_ctr_map6, align 16
  %tobool7 = icmp ne ptr %8, null
  br i1 %tobool7, label %if.end9, label %if.then8

if.then8:                                         ; preds = %if.end4
  %9 = load ptr, ptr %errp.addr, align 8
  call void (ptr, ptr, i32, ptr, ptr, ...) @error_setg_internal(ptr noundef %9, ptr noundef @.str.1, i32 noundef 446, ptr noundef @__func__.riscv_pmu_init, ptr noundef @.str.4)
  br label %return

if.end9:                                          ; preds = %if.end4
  %10 = load ptr, ptr %cpu.addr, align 8
  %cfg10 = getelementptr inbounds %struct.ArchCPU, ptr %10, i32 0, i32 4
  %pmu_mask11 = getelementptr inbounds %struct.RISCVCPUConfig, ptr %cfg10, i32 0, i32 93
  %11 = load i32, ptr %pmu_mask11, align 4
  %12 = load ptr, ptr %cpu.addr, align 8
  %pmu_avail_ctrs = getelementptr inbounds %struct.ArchCPU, ptr %12, i32 0, i32 6
  store i32 %11, ptr %pmu_avail_ctrs, align 8
  br label %return

return:                                           ; preds = %if.end9, %if.then8, %if.then3, %if.then
  ret void
}