; Function Attrs: nounwind sspstrong uwtable
define dso_local void @riscv_pmu_init(ptr noundef captures(none) %cpu, ptr noundef %errp) local_unnamed_addr #0 {
entry:
  %pmu_mask = getelementptr inbounds nuw i8, ptr %cpu, i64 19108
  %0 = load i32, ptr %pmu_mask, align 4
  %and = and i32 %0, 7
  %tobool.not = icmp eq i32 %and, 0
  br i1 %tobool.not, label %if.end4, label %if.then

if.then:                                          ; preds = %entry
  tail call void (ptr, ptr, i32, ptr, ptr, ...) @error_setg_internal(ptr noundef %errp, ptr noundef nonnull @.str.1, i32 noundef 435, ptr noundef nonnull @__func__.riscv_pmu_init, ptr noundef nonnull @.str.2) #6
  br label %return

if.end4:                                          ; preds = %entry
  %call5 = tail call ptr @g_hash_table_new(ptr noundef nonnull @g_direct_hash, ptr noundef nonnull @g_direct_equal) #6
  %pmu_event_ctr_map = getelementptr inbounds nuw i8, ptr %cpu, i64 19184
  store ptr %call5, ptr %pmu_event_ctr_map, align 16
  %tobool7.not = icmp eq ptr %call5, null
  br i1 %tobool7.not, label %if.then8, label %if.end9

if.then8:                                         ; preds = %if.end4
  tail call void (ptr, ptr, i32, ptr, ptr, ...) @error_setg_internal(ptr noundef %errp, ptr noundef nonnull @.str.1, i32 noundef 446, ptr noundef nonnull @__func__.riscv_pmu_init, ptr noundef nonnull @.str.4) #6
  br label %return

if.end9:                                          ; preds = %if.end4
  %1 = load i32, ptr %pmu_mask, align 4
  %pmu_avail_ctrs = getelementptr inbounds nuw i8, ptr %cpu, i64 19176
  store i32 %1, ptr %pmu_avail_ctrs, align 8
  br label %return

return:                                           ; preds = %if.end9, %if.then8, %if.then
  ret void
}